target datalayout = "e-m:e-p270:32:32-p271:32:32-p272:64:64-i64:64-i128:128-f80:128-n8:16:32:64-S128"
target triple = "x86_64-pc-linux-gnu"

@.str.1 = private unnamed_addr constant [38 x i8] c"plugin_load_from_file: dlopen(%s): %s\00", align 1
@__func__.plugin_load_from_file = private unnamed_addr constant [22 x i8] c"plugin_load_from_file\00", align 1
@.str.2 = private unnamed_addr constant [5 x i8] c"init\00", align 1

; Function Attrs: nounwind uwtable
define dso_local i32 @plugin_load_from_file(ptr noundef %0, ptr noundef %1) #0 {
  %3 = alloca i32, align 4
  %4 = alloca ptr, align 8
  %5 = alloca ptr, align 8
  %6 = alloca i32, align 4
  %7 = alloca ptr, align 8
  %8 = alloca ptr, align 8
  %9 = alloca i32, align 4
  store ptr %0, ptr %4, align 8
  store ptr %1, ptr %5, align 8
  call void @llvm.lifetime.start.p0(i64 4, ptr %6) #7
  call void @llvm.lifetime.start.p0(i64 8, ptr %7) #7
  call void @llvm.lifetime.start.p0(i64 8, ptr %8) #7
  %10 = load ptr, ptr %4, align 8
  store ptr null, ptr %10, align 8
  %11 = call ptr @dlerror() #7
  %12 = load ptr, ptr %5, align 8
  %13 = call ptr @dlopen(ptr noundef %12, i32 noundef 1) #7
  store ptr %13, ptr %7, align 8
  %14 = load ptr, ptr %7, align 8
  %15 = icmp eq ptr %14, null
  br i1 %15, label %16, label %20

16:                                               ; preds = %2
  %17 = load ptr, ptr %5, align 8
  %18 = call ptr @dlerror() #7
  %19 = call i32 (ptr, ...) @error(ptr noundef @.str.1, ptr noundef %17, ptr noundef %18)
  store i32 8007, ptr %3, align 4
  store i32 1, ptr %9, align 4
  br label %45

20:                                               ; preds = %2
  %21 = load ptr, ptr %7, align 8
  %22 = load ptr, ptr %5, align 8
  %23 = call i32 @_verify_syms(ptr noundef %21, ptr noundef null, i64 noundef 0, ptr noundef @__func__.plugin_load_from_file, ptr noundef %22)
  store i32 %23, ptr %6, align 4
  %24 = load i32, ptr %6, align 4
  %25 = icmp ne i32 %24, 0
  br i1 %25, label %26, label %30

26:                                               ; preds = %20
  %27 = load ptr, ptr %7, align 8
  %28 = call i32 @dlclose(ptr noundef %27) #7
  %29 = load i32, ptr %6, align 4
  store i32 %29, ptr %3, align 4
  store i32 1, ptr %9, align 4
  br label %45

30:                                               ; preds = %20
  %31 = load ptr, ptr %7, align 8
  %32 = call ptr @dlsym(ptr noundef %31, ptr noundef @.str.2) #7
  store ptr %32, ptr %8, align 8
  %33 = icmp ne ptr %32, null
  br i1 %33, label %34, label %42

34:                                               ; preds = %30
  %35 = load ptr, ptr %8, align 8
  %36 = call i32 %35()
  %37 = icmp ne i32 %36, 0
  br i1 %37, label %38, label %41

38:                                               ; preds = %34
  %39 = load ptr, ptr %7, align 8
  %40 = call i32 @dlclose(ptr noundef %39) #7
  store i32 8008, ptr %3, align 4
  store i32 1, ptr %9, align 4
  br label %45

41:                                               ; preds = %34
  br label %42

42:                                               ; preds = %41, %30
  %43 = load ptr, ptr %7, align 8
  %44 = load ptr, ptr %4, align 8
  store ptr %43, ptr %44, align 8
  store i32 0, ptr %3, align 4
  store i32 1, ptr %9, align 4
  br label %45

45:                                               ; preds = %42, %38, %26, %16
  call void @llvm.lifetime.end.p0(i64 8, ptr %8) #7
  call void @llvm.lifetime.end.p0(i64 8, ptr %7) #7
  call void @llvm.lifetime.end.p0(i64 4, ptr %6) #7
  %46 = load i32, ptr %3, align 4
  ret i32 %46
}