; Function Attrs: nounwind uwtable
define dso_local range(i32 0, 8011) i32 @plugin_load_from_file(ptr noundef writeonly captures(none) initializes((0, 8)) %0, ptr noundef %1) local_unnamed_addr #0 {
  store ptr null, ptr %0, align 8
  %3 = tail call ptr @dlerror() #10
  %4 = tail call ptr @dlopen(ptr noundef %1, i32 noundef 1) #10
  %5 = icmp eq ptr %4, null
  br i1 %5, label %6, label %9

6:                                                ; preds = %2
  %7 = tail call ptr @dlerror() #10
  %8 = tail call i32 (ptr, ...) @error(ptr noundef nonnull @.str.1, ptr noundef %1, ptr noundef %7) #10
  br label %20

9:                                                ; preds = %2
  %10 = tail call fastcc i32 @_verify_syms(ptr noundef %4, ptr noundef null, i64 noundef 0, ptr noundef nonnull @__func__.plugin_load_from_file, ptr noundef %1)
  %.not = icmp eq i32 %10, 0
  br i1 %.not, label %13, label %11

11:                                               ; preds = %9
  %12 = tail call i32 @dlclose(ptr noundef nonnull %4) #10
  br label %20

13:                                               ; preds = %9
  %14 = tail call ptr @dlsym(ptr noundef nonnull %4, ptr noundef nonnull @.str.2) #10
  %.not17 = icmp eq ptr %14, null
  br i1 %.not17, label %19, label %15

15:                                               ; preds = %13
  %16 = tail call i32 %14() #10
  %.not18 = icmp eq i32 %16, 0
  br i1 %.not18, label %19, label %17

17:                                               ; preds = %15
  %18 = tail call i32 @dlclose(ptr noundef nonnull %4) #10
  br label %20

19:                                               ; preds = %15, %13
  store ptr %4, ptr %0, align 8
  br label %20

20:                                               ; preds = %19, %17, %11, %6
  %.0 = phi i32 [ 8007, %6 ], [ %10, %11 ], [ 8008, %17 ], [ 0, %19 ]
  ret i32 %.0
}